; Function Attrs: mustprogress nofree nounwind willreturn memory(readwrite, inaccessiblemem: write) uwtable
define hidden void @_ZN19OpenColorIO_v2_5dev25Renderer_REC2100_SurroundC2ERSt10shared_ptrIKNS_19FixedFunctionOpDataEE(ptr noundef nonnull writeonly align 8 captures(none) dereferenceable(16) initializes((0, 16)) %0, ptr noundef nonnull readonly align 8 captures(none) dereferenceable(16) %1) unnamed_addr #8 align 2 personality ptr @__gxx_personality_v0 {
  store ptr getelementptr inbounds nuw inrange(-16, 48) (i8, ptr @_ZTVN19OpenColorIO_v2_5dev25Renderer_REC2100_SurroundE, i64 16), ptr %0, align 8, !tbaa !3
  %3 = load ptr, ptr %1, align 8, !tbaa !33
  %4 = getelementptr inbounds nuw i8, ptr %3, i64 168
  %5 = load i32, ptr %4, align 8, !tbaa !57
  %6 = icmp eq i32 %5, 12
  %7 = getelementptr inbounds nuw i8, ptr %3, i64 176
  %8 = load ptr, ptr %7, align 8, !tbaa !39
  %9 = load double, ptr %8, align 8, !tbaa !42
  %10 = fptrunc double %9 to float
  br i1 %6, label %13, label %11

11:                                               ; preds = %2
  %12 = tail call float @powf(float noundef 0x3F1A36E2E0000000, float noundef %10) #28, !tbaa !14
  br label %13

13:                                               ; preds = %2, %11
  %14 = phi float [ %12, %11 ], [ 0x3F1A36E2E0000000, %2 ]
  %15 = getelementptr inbounds nuw i8, ptr %0, i64 12
  store float %14, ptr %15, align 4, !tbaa !114
  %16 = fdiv float 1.000000e+00, %10
  %17 = select i1 %6, float %10, float %16
  %18 = fadd float %17, -1.000000e+00
  %19 = getelementptr inbounds nuw i8, ptr %0, i64 8
  store float %18, ptr %19, align 8, !tbaa !116
  ret void
}